; Function Attrs: mustprogress nounwind uwtable
define hidden void @_ZN6hermes3hbc18BytecodeSerializer21serializeObjectBufferERNS0_14BytecodeModuleE(ptr noundef nonnull align 8 dereferenceable(176) %this, ptr noundef nonnull readonly align 8 captures(none) dereferenceable(513) %BM) local_unnamed_addr #0 align 2 {
entry:
  %objKeyBuffer_.i = getelementptr inbounds nuw i8, ptr %BM, i64 384
  %0 = load ptr, ptr %objKeyBuffer_.i, align 8, !noalias !18
  %_M_finish.i.i.i = getelementptr inbounds nuw i8, ptr %BM, i64 392
  %1 = load ptr, ptr %_M_finish.i.i.i, align 8, !noalias !18
  %sub.ptr.lhs.cast.i.i.i = ptrtoint ptr %1 to i64
  %sub.ptr.rhs.cast.i.i.i = ptrtoint ptr %0 to i64
  %sub.ptr.sub.i.i.i = sub i64 %sub.ptr.lhs.cast.i.i.i, %sub.ptr.rhs.cast.i.i.i
  %objValBuffer_.i = getelementptr inbounds nuw i8, ptr %BM, i64 408
  %2 = load ptr, ptr %objValBuffer_.i, align 8, !noalias !18
  %_M_finish.i.i2.i = getelementptr inbounds nuw i8, ptr %BM, i64 416
  %3 = load ptr, ptr %_M_finish.i.i2.i, align 8, !noalias !18
  %sub.ptr.lhs.cast.i.i3.i = ptrtoint ptr %3 to i64
  %sub.ptr.rhs.cast.i.i4.i = ptrtoint ptr %2 to i64
  %sub.ptr.sub.i.i5.i = sub i64 %sub.ptr.lhs.cast.i.i3.i, %sub.ptr.rhs.cast.i.i4.i
  %isLayout_.i = getelementptr inbounds nuw i8, ptr %this, i64 48
  %4 = load i8, ptr %isLayout_.i, align 8
  %tobool.i = trunc i8 %4 to i1
  br i1 %tobool.i, label %_ZN6hermes3hbc18BytecodeSerializer16writeBinaryArrayIhEEvN4llvh8ArrayRefIT_EE.exit, label %if.then.i

if.then.i:                                        ; preds = %entry
  %outputHasher_.i = getelementptr inbounds nuw i8, ptr %this, i64 64
  tail call void @_ZN4llvh4SHA16updateENS_8ArrayRefIhEE(ptr noundef nonnull align 4 dereferenceable(112) %outputHasher_.i, ptr %0, i64 %sub.ptr.sub.i.i.i) #12
  %5 = load ptr, ptr %this, align 8
  %call4.i = tail call noundef nonnull align 8 dereferenceable(36) ptr @_ZN4llvh11raw_ostream5writeEPKcm(ptr noundef nonnull align 8 dereferenceable(36) %5, ptr noundef %0, i64 noundef %sub.ptr.sub.i.i.i) #12
  %.pre = load i8, ptr %isLayout_.i, align 8
  br label %_ZN6hermes3hbc18BytecodeSerializer16writeBinaryArrayIhEEvN4llvh8ArrayRefIT_EE.exit

_ZN6hermes3hbc18BytecodeSerializer16writeBinaryArrayIhEEvN4llvh8ArrayRefIT_EE.exit: ; preds = %entry, %if.then.i
  %6 = phi i8 [ %4, %entry ], [ %.pre, %if.then.i ]
  %loc_.i = getelementptr inbounds nuw i8, ptr %this, i64 40
  %7 = load i64, ptr %loc_.i, align 8
  %add.i = add i64 %7, %sub.ptr.sub.i.i.i
  store i64 %add.i, ptr %loc_.i, align 8
  %tobool.i2 = trunc i8 %6 to i1
  br i1 %tobool.i2, label %_ZN6hermes3hbc18BytecodeSerializer16writeBinaryArrayIhEEvN4llvh8ArrayRefIT_EE.exit8, label %if.then.i3

if.then.i3:                                       ; preds = %_ZN6hermes3hbc18BytecodeSerializer16writeBinaryArrayIhEEvN4llvh8ArrayRefIT_EE.exit
  %outputHasher_.i4 = getelementptr inbounds nuw i8, ptr %this, i64 64
  tail call void @_ZN4llvh4SHA16updateENS_8ArrayRefIhEE(ptr noundef nonnull align 4 dereferenceable(112) %outputHasher_.i4, ptr %2, i64 %sub.ptr.sub.i.i5.i) #12
  %8 = load ptr, ptr %this, align 8
  %call4.i5 = tail call noundef nonnull align 8 dereferenceable(36) ptr @_ZN4llvh11raw_ostream5writeEPKcm(ptr noundef nonnull align 8 dereferenceable(36) %8, ptr noundef %2, i64 noundef %sub.ptr.sub.i.i5.i) #12
  %.pre9 = load i64, ptr %loc_.i, align 8
  br label %_ZN6hermes3hbc18BytecodeSerializer16writeBinaryArrayIhEEvN4llvh8ArrayRefIT_EE.exit8

_ZN6hermes3hbc18BytecodeSerializer16writeBinaryArrayIhEEvN4llvh8ArrayRefIT_EE.exit8: ; preds = %_ZN6hermes3hbc18BytecodeSerializer16writeBinaryArrayIhEEvN4llvh8ArrayRefIT_EE.exit, %if.then.i3
  %9 = phi i64 [ %add.i, %_ZN6hermes3hbc18BytecodeSerializer16writeBinaryArrayIhEEvN4llvh8ArrayRefIT_EE.exit ], [ %.pre9, %if.then.i3 ]
  %add.i7 = add i64 %9, %sub.ptr.sub.i.i5.i
  store i64 %add.i7, ptr %loc_.i, align 8
  ret void
}